target datalayout = "e-m:e-p270:32:32-p271:32:32-p272:64:64-i64:64-i128:128-f80:128-n8:16:32:64-S128"
target triple = "x86_64-unknown-linux-gnu"

%"class.std::set.0" = type { %"class.std::_Rb_tree.1" }
%"class.std::_Rb_tree.1" = type { %"struct.std::_Rb_tree<QuantLib::Observer *, QuantLib::Observer *, std::_Identity<QuantLib::Observer *>, std::less<QuantLib::Observer *>>::_Rb_tree_impl" }
%"struct.std::_Rb_tree<QuantLib::Observer *, QuantLib::Observer *, std::_Identity<QuantLib::Observer *>, std::less<QuantLib::Observer *>>::_Rb_tree_impl" = type { [8 x i8], %"struct.std::_Rb_tree_header" }
%"struct.std::_Rb_tree_header" = type { %"struct.std::_Rb_tree_node_base", i64 }
%"struct.std::_Rb_tree_node_base" = type { i32, ptr, ptr, ptr }
%"class.boost::detail::shared_count" = type { ptr }
%"class.QuantLib::Observable" = type { ptr, %"class.std::set.0" }
%"class.QuantLib::SimpleQuote" = type { %"class.QuantLib::Quote.base", double, %"class.QuantLib::Observable" }
%"class.QuantLib::Quote.base" = type { ptr }
%"class.boost::shared_ptr.82" = type { ptr, %"class.boost::detail::shared_count" }
%"class.QuantLib::OptionletStripper2::ObjectiveFunction" = type { %"class.boost::shared_ptr.98", %"class.boost::shared_ptr.82", double }
%"class.boost::shared_ptr.98" = type { ptr, %"class.boost::detail::shared_count" }

@.str.13 = private unnamed_addr constant [8 x i8] c"px != 0\00", align 1
@.str.14 = private unnamed_addr constant [102 x i8] c"generated/home/dtcxzyw/WorkSpace/SDK/vcpkg/installed/x64-linux/include/boost/smart_ptr/shared_ptr.hpp\00", align 1
@__PRETTY_FUNCTION__._ZNK5boost10shared_ptrIN8QuantLib8CapFloorEEptEv = private unnamed_addr constant [133 x i8] c"typename boost::detail::sp_member_access<T>::type boost::shared_ptr<QuantLib::CapFloor>::operator->() const [T = QuantLib::CapFloor]\00", align 1
@__PRETTY_FUNCTION__._ZNK5boost10shared_ptrIN8QuantLib11SimpleQuoteEEptEv = private unnamed_addr constant [139 x i8] c"typename boost::detail::sp_member_access<T>::type boost::shared_ptr<QuantLib::SimpleQuote>::operator->() const [T = QuantLib::SimpleQuote]\00", align 1

; Function Attrs: mustprogress uwtable
define linkonce_odr noundef ptr @_ZNK5boost10shared_ptrIN8QuantLib8CapFloorEEptEv(ptr noundef nonnull align 8 dereferenceable(16) %this) #2 comdat align 2 {
entry:
  %this.addr = alloca ptr, align 8
  store ptr %this, ptr %this.addr, align 8, !tbaa !3
  %this1 = load ptr, ptr %this.addr, align 8
  %px = getelementptr inbounds nuw %"class.boost::shared_ptr.82", ptr %this1, i32 0, i32 0
  %0 = load ptr, ptr %px, align 8, !tbaa !99
  %cmp = icmp ne ptr %0, null
  %lnot = xor i1 %cmp, true
  %lnot2 = xor i1 %lnot, true
  %conv = zext i1 %lnot2 to i64
  %expval = call i64 @llvm.expect.i64(i64 %conv, i64 1)
  %tobool = icmp ne i64 %expval, 0
  br i1 %tobool, label %cond.true, label %cond.false

cond.true:                                        ; preds = %entry
  br label %cond.end

cond.false:                                       ; preds = %entry
  call void @_ZN5boost16assertion_failedEPKcS1_S1_l(ptr noundef @.str.13, ptr noundef @__PRETTY_FUNCTION__._ZNK5boost10shared_ptrIN8QuantLib8CapFloorEEptEv, ptr noundef @.str.14, i64 noundef 784)
  br label %cond.end

cond.end:                                         ; preds = %cond.false, %cond.true
  %px3 = getelementptr inbounds nuw %"class.boost::shared_ptr.82", ptr %this1, i32 0, i32 0
  %1 = load ptr, ptr %px3, align 8, !tbaa !99
  ret ptr %1
}

; Function Attrs: inlinehint mustprogress uwtable
define linkonce_odr noundef double @_ZN8QuantLib11SimpleQuote8setValueEd(ptr noundef nonnull align 8 dereferenceable(16) %this, double noundef %value) #4 comdat align 2 {
entry:
  %this.addr = alloca ptr, align 8
  %value.addr = alloca double, align 8
  %diff = alloca double, align 8
  store ptr %this, ptr %this.addr, align 8, !tbaa !3
  store double %value, ptr %value.addr, align 8, !tbaa !81
  %this1 = load ptr, ptr %this.addr, align 8
  call void @llvm.lifetime.start.p0(i64 8, ptr %diff) #14
  %0 = load double, ptr %value.addr, align 8, !tbaa !81
  %value_ = getelementptr inbounds nuw %"class.QuantLib::SimpleQuote", ptr %this1, i32 0, i32 1
  %1 = load double, ptr %value_, align 8, !tbaa !24
  %sub = fsub double %0, %1
  store double %sub, ptr %diff, align 8, !tbaa !81
  %2 = load double, ptr %diff, align 8, !tbaa !81
  %cmp = fcmp une double %2, 0.000000e+00
  br i1 %cmp, label %if.then, label %if.end

if.then:                                          ; preds = %entry
  %3 = load double, ptr %value.addr, align 8, !tbaa !81
  %value_2 = getelementptr inbounds nuw %"class.QuantLib::SimpleQuote", ptr %this1, i32 0, i32 1
  store double %3, ptr %value_2, align 8, !tbaa !24
  %vtable = load ptr, ptr %this1, align 8, !tbaa !12
  %vbase.offset.ptr = getelementptr i8, ptr %vtable, i64 -24
  %vbase.offset = load i64, ptr %vbase.offset.ptr, align 8
  %add.ptr = getelementptr inbounds i8, ptr %this1, i64 %vbase.offset
  call void @_ZN8QuantLib10Observable15notifyObserversEv(ptr noundef nonnull align 8 dereferenceable(56) %add.ptr)
  br label %if.end

if.end:                                           ; preds = %if.then, %entry
  %4 = load double, ptr %diff, align 8, !tbaa !81
  call void @llvm.lifetime.end.p0(i64 8, ptr %diff) #14
  ret double %4
}

; Function Attrs: mustprogress uwtable
define linkonce_odr noundef ptr @_ZNK5boost10shared_ptrIN8QuantLib11SimpleQuoteEEptEv(ptr noundef nonnull align 8 dereferenceable(16) %this) #2 comdat align 2 {
entry:
  %this.addr = alloca ptr, align 8
  store ptr %this, ptr %this.addr, align 8, !tbaa !3
  %this1 = load ptr, ptr %this.addr, align 8
  %px = getelementptr inbounds nuw %"class.boost::shared_ptr.98", ptr %this1, i32 0, i32 0
  %0 = load ptr, ptr %px, align 8, !tbaa !143
  %cmp = icmp ne ptr %0, null
  %lnot = xor i1 %cmp, true
  %lnot2 = xor i1 %lnot, true
  %conv = zext i1 %lnot2 to i64
  %expval = call i64 @llvm.expect.i64(i64 %conv, i64 1)
  %tobool = icmp ne i64 %expval, 0
  br i1 %tobool, label %cond.true, label %cond.false

cond.true:                                        ; preds = %entry
  br label %cond.end

cond.false:                                       ; preds = %entry
  call void @_ZN5boost16assertion_failedEPKcS1_S1_l(ptr noundef @.str.13, ptr noundef @__PRETTY_FUNCTION__._ZNK5boost10shared_ptrIN8QuantLib11SimpleQuoteEEptEv, ptr noundef @.str.14, i64 noundef 784)
  br label %cond.end

cond.end:                                         ; preds = %cond.false, %cond.true
  %px3 = getelementptr inbounds nuw %"class.boost::shared_ptr.98", ptr %this1, i32 0, i32 0
  %1 = load ptr, ptr %px3, align 8, !tbaa !143
  ret ptr %1
}

; Function Attrs: mustprogress uwtable
define noundef double @_ZNK8QuantLib18OptionletStripper217ObjectiveFunctionclEd(ptr noundef nonnull align 8 dereferenceable(40) %this, double noundef %s) #2 align 2 {
entry:
  %this.addr = alloca ptr, align 8
  %s.addr = alloca double, align 8
  store ptr %this, ptr %this.addr, align 8, !tbaa !3
  store double %s, ptr %s.addr, align 8, !tbaa !81
  %this1 = load ptr, ptr %this.addr, align 8
  %0 = load double, ptr %s.addr, align 8, !tbaa !81
  %spreadQuote_ = getelementptr inbounds nuw %"class.QuantLib::OptionletStripper2::ObjectiveFunction", ptr %this1, i32 0, i32 0
  %call = call noundef ptr @_ZNK5boost10shared_ptrIN8QuantLib11SimpleQuoteEEptEv(ptr noundef nonnull align 8 dereferenceable(16) %spreadQuote_)
  %vtable = load ptr, ptr %call, align 8, !tbaa !12
  %vfn = getelementptr inbounds ptr, ptr %vtable, i64 2
  %1 = load ptr, ptr %vfn, align 8
  %call2 = call noundef double %1(ptr noundef nonnull align 8 dereferenceable(16) %call)
  %cmp = fcmp une double %0, %call2
  br i1 %cmp, label %if.then, label %if.end

if.then:                                          ; preds = %entry
  %spreadQuote_3 = getelementptr inbounds nuw %"class.QuantLib::OptionletStripper2::ObjectiveFunction", ptr %this1, i32 0, i32 0
  %call4 = call noundef ptr @_ZNK5boost10shared_ptrIN8QuantLib11SimpleQuoteEEptEv(ptr noundef nonnull align 8 dereferenceable(16) %spreadQuote_3)
  %2 = load double, ptr %s.addr, align 8, !tbaa !81
  %call5 = call noundef double @_ZN8QuantLib11SimpleQuote8setValueEd(ptr noundef nonnull align 8 dereferenceable(16) %call4, double noundef %2)
  br label %if.end

if.end:                                           ; preds = %if.then, %entry
  %cap_ = getelementptr inbounds nuw %"class.QuantLib::OptionletStripper2::ObjectiveFunction", ptr %this1, i32 0, i32 1
  %call6 = call noundef ptr @_ZNK5boost10shared_ptrIN8QuantLib8CapFloorEEptEv(ptr noundef nonnull align 8 dereferenceable(16) %cap_)
  %call7 = call noundef double @_ZNK8QuantLib10Instrument3NPVEv(ptr noundef nonnull align 8 dereferenceable(104) %call6)
  %targetValue_ = getelementptr inbounds nuw %"class.QuantLib::OptionletStripper2::ObjectiveFunction", ptr %this1, i32 0, i32 2
  %3 = load double, ptr %targetValue_, align 8, !tbaa !140
  %sub = fsub double %call7, %3
  ret double %sub
}