; Function Attrs: mustprogress uwtable
define noundef double @_ZNK8QuantLib18OptionletStripper217ObjectiveFunctionclEd(ptr nocapture noundef nonnull readonly align 8 dereferenceable(40) %this, double noundef %s) local_unnamed_addr #6 align 2 {
entry:
  %0 = load ptr, ptr %this, align 8, !tbaa !185
  %cmp.not.i = icmp eq ptr %0, null
  br i1 %cmp.not.i, label %cond.false.i, label %_ZNK5boost10shared_ptrIN8QuantLib11SimpleQuoteEEptEv.exit, !prof !50

cond.false.i:                                     ; preds = %entry
  tail call void @_ZN5boost16assertion_failedEPKcS1_S1_l(ptr noundef nonnull @.str.13, ptr noundef nonnull @__PRETTY_FUNCTION__._ZNK5boost10shared_ptrIN8QuantLib11SimpleQuoteEEptEv, ptr noundef nonnull @.str.14, i64 noundef 784)
  %.pre.i = load ptr, ptr %this, align 8, !tbaa !185
  br label %_ZNK5boost10shared_ptrIN8QuantLib11SimpleQuoteEEptEv.exit

_ZNK5boost10shared_ptrIN8QuantLib11SimpleQuoteEEptEv.exit: ; preds = %entry, %cond.false.i
  %1 = phi ptr [ %0, %entry ], [ %.pre.i, %cond.false.i ]
  %vtable = load ptr, ptr %1, align 8, !tbaa !35
  %vfn = getelementptr inbounds i8, ptr %vtable, i64 16
  %2 = load ptr, ptr %vfn, align 8
  %call2 = tail call noundef double %2(ptr noundef nonnull align 8 dereferenceable(16) %1)
  %cmp = fcmp une double %s, %call2
  br i1 %cmp, label %if.then, label %if.end

if.then:                                          ; preds = %_ZNK5boost10shared_ptrIN8QuantLib11SimpleQuoteEEptEv.exit
  %3 = load ptr, ptr %this, align 8, !tbaa !185
  %cmp.not.i2 = icmp eq ptr %3, null
  br i1 %cmp.not.i2, label %cond.false.i3, label %_ZNK5boost10shared_ptrIN8QuantLib11SimpleQuoteEEptEv.exit5, !prof !50

cond.false.i3:                                    ; preds = %if.then
  tail call void @_ZN5boost16assertion_failedEPKcS1_S1_l(ptr noundef nonnull @.str.13, ptr noundef nonnull @__PRETTY_FUNCTION__._ZNK5boost10shared_ptrIN8QuantLib11SimpleQuoteEEptEv, ptr noundef nonnull @.str.14, i64 noundef 784)
  %.pre.i4 = load ptr, ptr %this, align 8, !tbaa !185
  br label %_ZNK5boost10shared_ptrIN8QuantLib11SimpleQuoteEEptEv.exit5

_ZNK5boost10shared_ptrIN8QuantLib11SimpleQuoteEEptEv.exit5: ; preds = %if.then, %cond.false.i3
  %4 = phi ptr [ %3, %if.then ], [ %.pre.i4, %cond.false.i3 ]
  %value_.i = getelementptr inbounds nuw i8, ptr %4, i64 8
  %5 = load double, ptr %value_.i, align 8, !tbaa !44
  %sub.i = fsub double %s, %5
  %cmp.i = fcmp une double %sub.i, 0.000000e+00
  br i1 %cmp.i, label %if.then.i, label %if.end

if.then.i:                                        ; preds = %_ZNK5boost10shared_ptrIN8QuantLib11SimpleQuoteEEptEv.exit5
  store double %s, ptr %value_.i, align 8, !tbaa !44
  %vtable.i = load ptr, ptr %4, align 8, !tbaa !35
  %vbase.offset.ptr.i = getelementptr i8, ptr %vtable.i, i64 -24
  %vbase.offset.i = load i64, ptr %vbase.offset.ptr.i, align 8
  %add.ptr.i = getelementptr inbounds i8, ptr %4, i64 %vbase.offset.i
  tail call void @_ZN8QuantLib10Observable15notifyObserversEv(ptr noundef nonnull align 8 dereferenceable(56) %add.ptr.i)
  br label %if.end

if.end:                                           ; preds = %if.then.i, %_ZNK5boost10shared_ptrIN8QuantLib11SimpleQuoteEEptEv.exit5, %_ZNK5boost10shared_ptrIN8QuantLib11SimpleQuoteEEptEv.exit
  %cap_ = getelementptr inbounds nuw i8, ptr %this, i64 16
  %6 = load ptr, ptr %cap_, align 8, !tbaa !137
  %cmp.not.i6 = icmp eq ptr %6, null
  br i1 %cmp.not.i6, label %cond.false.i7, label %_ZNK5boost10shared_ptrIN8QuantLib8CapFloorEEptEv.exit, !prof !50

cond.false.i7:                                    ; preds = %if.end
  tail call void @_ZN5boost16assertion_failedEPKcS1_S1_l(ptr noundef nonnull @.str.13, ptr noundef nonnull @__PRETTY_FUNCTION__._ZNK5boost10shared_ptrIN8QuantLib8CapFloorEEptEv, ptr noundef nonnull @.str.14, i64 noundef 784)
  %.pre.i8 = load ptr, ptr %cap_, align 8, !tbaa !137
  br label %_ZNK5boost10shared_ptrIN8QuantLib8CapFloorEEptEv.exit

_ZNK5boost10shared_ptrIN8QuantLib8CapFloorEEptEv.exit: ; preds = %if.end, %cond.false.i7
  %7 = phi ptr [ %6, %if.end ], [ %.pre.i8, %cond.false.i7 ]
  %call7 = tail call noundef double @_ZNK8QuantLib10Instrument3NPVEv(ptr noundef nonnull align 8 dereferenceable(104) %7)
  %targetValue_ = getelementptr inbounds nuw i8, ptr %this, i64 32
  %8 = load double, ptr %targetValue_, align 8, !tbaa !178
  %sub = fsub double %call7, %8
  ret double %sub
}